target datalayout = "e-m:e-p270:32:32-p271:32:32-p272:64:64-i64:64-i128:128-f80:128-n8:16:32:64-S128"
target triple = "x86_64-unknown-linux-gnu"

%"class.QuantLib::Null" = type { i8 }
%"class.QuantLib::ExponentialJump1dMesher" = type { %"class.QuantLib::Fdm1dMesher", double, double, double }
%"class.QuantLib::Fdm1dMesher" = type { ptr, %"class.std::vector", %"class.std::vector", %"class.std::vector" }
%"class.std::vector" = type { %"struct.std::_Vector_base" }
%"struct.std::_Vector_base" = type { %"struct.std::_Vector_base<double, std::allocator<double>>::_Vector_impl" }
%"struct.std::_Vector_base<double, std::allocator<double>>::_Vector_impl" = type { %"struct.std::_Vector_base<double, std::allocator<double>>::_Vector_impl_data" }
%"struct.std::_Vector_base<double, std::allocator<double>>::_Vector_impl_data" = type { ptr, ptr, ptr }
%"class.QuantLib::GammaFunction" = type { i8 }
%"class.QuantLib::GaussLobattoIntegral" = type <{ %"class.QuantLib::Integrator", double, i8, [7 x i8] }>
%"class.QuantLib::Integrator" = type { ptr, double, double, i64, i64 }
%"class.std::function" = type { %"class.std::_Function_base", ptr }
%"class.std::_Function_base" = type { %"union.std::_Any_data", ptr }
%"union.std::_Any_data" = type { %"union.std::_Nocopy_types" }
%"union.std::_Nocopy_types" = type { { i64, i64 } }
%class.anon.3 = type { ptr }

; Function Attrs: mustprogress nounwind uwtable
define linkonce_odr noundef ptr @_ZNSt9_Any_data9_M_accessEv(ptr noundef nonnull align 8 dereferenceable(16) %this) #3 comdat align 2 {
entry:
  %this.addr = alloca ptr, align 8
  store ptr %this, ptr %this.addr, align 8, !tbaa !3
  %this1 = load ptr, ptr %this.addr, align 8
  %arrayidx = getelementptr inbounds [16 x i8], ptr %this1, i64 0, i64 0
  ret ptr %arrayidx
}

; Function Attrs: mustprogress nounwind uwtable
define internal void @"_ZNSt14_Function_base13_Base_managerIZNK8QuantLib23ExponentialJump1dMesher20jumpSizeDistributionEdE3$_0E9_M_createIS3_EEvRSt9_Any_dataOT_St17integral_constantIbLb1EE"(ptr noundef nonnull align 8 dereferenceable(16) %__dest, ptr noundef nonnull align 8 dereferenceable(8) %__f) #3 align 2 {
entry:
  %__dest.addr = alloca ptr, align 8
  %__f.addr = alloca ptr, align 8
  store ptr %__dest, ptr %__dest.addr, align 8, !tbaa !3
  store ptr %__f, ptr %__f.addr, align 8, !tbaa !3
  %0 = load ptr, ptr %__dest.addr, align 8, !tbaa !3
  %call = call noundef ptr @_ZNSt9_Any_data9_M_accessEv(ptr noundef nonnull align 8 dereferenceable(16) %0) #16
  %1 = load ptr, ptr %__f.addr, align 8, !tbaa !3
  call void @llvm.memcpy.p0.p0.i64(ptr align 8 %call, ptr align 8 %1, i64 8, i1 false), !tbaa.struct !89
  ret void
}

; Function Attrs: mustprogress nounwind uwtable
define linkonce_odr noundef float @_ZNSt14numeric_limitsIfE3maxEv() #3 comdat align 2 {
entry:
  ret float 0x47EFFFFFE0000000
}

; Function Attrs: mustprogress nounwind uwtable
define internal void @"_ZNSt14_Function_base13_Base_managerIZNK8QuantLib23ExponentialJump1dMesher20jumpSizeDistributionEdE3$_0E15_M_init_functorIS3_EEvRSt9_Any_dataOT_"(ptr noundef nonnull align 8 dereferenceable(16) %__functor, ptr noundef nonnull align 8 dereferenceable(8) %__f) #3 align 2 personality ptr @__gxx_personality_v0 {
entry:
  %__functor.addr = alloca ptr, align 8
  %__f.addr = alloca ptr, align 8
  store ptr %__functor, ptr %__functor.addr, align 8, !tbaa !3
  store ptr %__f, ptr %__f.addr, align 8, !tbaa !3
  %0 = load ptr, ptr %__functor.addr, align 8, !tbaa !3
  %1 = load ptr, ptr %__f.addr, align 8, !tbaa !3
  invoke void @"_ZNSt14_Function_base13_Base_managerIZNK8QuantLib23ExponentialJump1dMesher20jumpSizeDistributionEdE3$_0E9_M_createIS3_EEvRSt9_Any_dataOT_St17integral_constantIbLb1EE"(ptr noundef nonnull align 8 dereferenceable(16) %0, ptr noundef nonnull align 8 dereferenceable(8) %1)
          to label %invoke.cont unwind label %terminate.lpad

invoke.cont:                                      ; preds = %entry
  ret void

terminate.lpad:                                   ; preds = %entry
  %2 = landingpad { ptr, i32 }
          catch ptr null
  %3 = extractvalue { ptr, i32 } %2, 0
  call void @__clang_call_terminate(ptr %3) #18
  unreachable
}

; Function Attrs: mustprogress nounwind uwtable
define internal noundef zeroext i1 @"_ZNSt14_Function_base13_Base_managerIZNK8QuantLib23ExponentialJump1dMesher20jumpSizeDistributionEdE3$_0E21_M_not_empty_functionIS3_EEbRKT_"(ptr noundef nonnull align 8 dereferenceable(8) %0) #3 align 2 {
entry:
  %.addr = alloca ptr, align 8
  store ptr %0, ptr %.addr, align 8, !tbaa !3
  ret i1 true
}

; Function Attrs: mustprogress nounwind uwtable
define linkonce_odr void @_ZNSt14_Function_baseC2Ev(ptr noundef nonnull align 8 dereferenceable(24) %this) unnamed_addr #3 comdat align 2 {
entry:
  %this.addr = alloca ptr, align 8
  store ptr %this, ptr %this.addr, align 8, !tbaa !3
  %this1 = load ptr, ptr %this.addr, align 8
  %_M_functor = getelementptr inbounds nuw %"class.std::_Function_base", ptr %this1, i32 0, i32 0
  store ptr null, ptr %_M_functor, align 8, !tbaa !43
  %_M_manager = getelementptr inbounds nuw %"class.std::_Function_base", ptr %this1, i32 0, i32 1
  store ptr null, ptr %_M_manager, align 8, !tbaa !33
  ret void
}

; Function Attrs: mustprogress nounwind uwtable
define linkonce_odr noundef float @_ZN8QuantLib6detail17FloatingPointNullILb1EE9nullValueEv() #3 comdat align 2 {
entry:
  %call = call noundef float @_ZNSt14numeric_limitsIfE3maxEv() #16
  ret float %call
}

; Function Attrs: mustprogress nounwind uwtable
define linkonce_odr void @_ZN8QuantLib10IntegratorD2Ev(ptr noundef nonnull align 8 dereferenceable(40) %this) unnamed_addr #3 comdat align 2 {
entry:
  %this.addr = alloca ptr, align 8
  store ptr %this, ptr %this.addr, align 8, !tbaa !3
  ret void
}

; Function Attrs: mustprogress nounwind uwtable
define linkonce_odr void @_ZNSt14_Function_baseD2Ev(ptr noundef nonnull align 8 dereferenceable(24) %this) unnamed_addr #3 comdat align 2 personality ptr @__gxx_personality_v0 {
entry:
  %this.addr = alloca ptr, align 8
  store ptr %this, ptr %this.addr, align 8, !tbaa !3
  %this1 = load ptr, ptr %this.addr, align 8
  %_M_manager = getelementptr inbounds nuw %"class.std::_Function_base", ptr %this1, i32 0, i32 1
  %0 = load ptr, ptr %_M_manager, align 8, !tbaa !33
  %tobool = icmp ne ptr %0, null
  br i1 %tobool, label %if.then, label %if.end

if.then:                                          ; preds = %entry
  %_M_manager2 = getelementptr inbounds nuw %"class.std::_Function_base", ptr %this1, i32 0, i32 1
  %1 = load ptr, ptr %_M_manager2, align 8, !tbaa !33
  %_M_functor = getelementptr inbounds nuw %"class.std::_Function_base", ptr %this1, i32 0, i32 0
  %_M_functor3 = getelementptr inbounds nuw %"class.std::_Function_base", ptr %this1, i32 0, i32 0
  %call = invoke noundef zeroext i1 %1(ptr noundef nonnull align 8 dereferenceable(16) %_M_functor, ptr noundef nonnull align 8 dereferenceable(16) %_M_functor3, i32 noundef 3)
          to label %invoke.cont unwind label %terminate.lpad

invoke.cont:                                      ; preds = %if.then
  br label %if.end

if.end:                                           ; preds = %invoke.cont, %entry
  ret void

terminate.lpad:                                   ; preds = %if.then
  %2 = landingpad { ptr, i32 }
          catch ptr null
  %3 = extractvalue { ptr, i32 } %2, 0
  call void @__clang_call_terminate(ptr %3) #18
  unreachable
}

; Function Attrs: inlinehint mustprogress nounwind uwtable
define linkonce_odr noundef nonnull align 8 dereferenceable(8) ptr @_ZSt3maxIdERKT_S2_S2_(ptr noundef nonnull align 8 dereferenceable(8) %__a, ptr noundef nonnull align 8 dereferenceable(8) %__b) #5 comdat {
entry:
  %retval = alloca ptr, align 8
  %__a.addr = alloca ptr, align 8
  %__b.addr = alloca ptr, align 8
  store ptr %__a, ptr %__a.addr, align 8, !tbaa !3
  store ptr %__b, ptr %__b.addr, align 8, !tbaa !3
  %0 = load ptr, ptr %__a.addr, align 8, !tbaa !3
  %1 = load double, ptr %0, align 8, !tbaa !9
  %2 = load ptr, ptr %__b.addr, align 8, !tbaa !3
  %3 = load double, ptr %2, align 8, !tbaa !9
  %cmp = fcmp olt double %1, %3
  br i1 %cmp, label %if.then, label %if.end

if.then:                                          ; preds = %entry
  %4 = load ptr, ptr %__b.addr, align 8, !tbaa !3
  store ptr %4, ptr %retval, align 8
  br label %return

if.end:                                           ; preds = %entry
  %5 = load ptr, ptr %__a.addr, align 8, !tbaa !3
  store ptr %5, ptr %retval, align 8
  br label %return

return:                                           ; preds = %if.end, %if.then
  %6 = load ptr, ptr %retval, align 8
  ret ptr %6
}

; Function Attrs: mustprogress nounwind uwtable
define internal void @"_ZNSt8functionIFddEEC2IZNK8QuantLib23ExponentialJump1dMesher20jumpSizeDistributionEdE3$_0vEEOT_"(ptr noundef nonnull align 8 dereferenceable(32) %this, ptr noundef nonnull align 8 dereferenceable(8) %__f) unnamed_addr #3 align 2 {
entry:
  %this.addr = alloca ptr, align 8
  %__f.addr = alloca ptr, align 8
  store ptr %this, ptr %this.addr, align 8, !tbaa !3
  store ptr %__f, ptr %__f.addr, align 8, !tbaa !3
  %this1 = load ptr, ptr %this.addr, align 8
  %0 = getelementptr inbounds i8, ptr %this1, i64 0
  call void @llvm.memset.p0.i64(ptr align 8 %0, i8 0, i64 24, i1 false)
  call void @_ZNSt14_Function_baseC2Ev(ptr noundef nonnull align 8 dereferenceable(24) %this1) #16
  %_M_invoker = getelementptr inbounds nuw %"class.std::function", ptr %this1, i32 0, i32 1
  store ptr null, ptr %_M_invoker, align 8, !tbaa !30
  %1 = load ptr, ptr %__f.addr, align 8, !tbaa !3
  %call = call noundef zeroext i1 @"_ZNSt14_Function_base13_Base_managerIZNK8QuantLib23ExponentialJump1dMesher20jumpSizeDistributionEdE3$_0E21_M_not_empty_functionIS3_EEbRKT_"(ptr noundef nonnull align 8 dereferenceable(8) %1) #16
  br i1 %call, label %if.then, label %if.end

if.then:                                          ; preds = %entry
  %_M_functor = getelementptr inbounds nuw %"class.std::_Function_base", ptr %this1, i32 0, i32 0
  %2 = load ptr, ptr %__f.addr, align 8, !tbaa !3
  call void @"_ZNSt14_Function_base13_Base_managerIZNK8QuantLib23ExponentialJump1dMesher20jumpSizeDistributionEdE3$_0E15_M_init_functorIS3_EEvRSt9_Any_dataOT_"(ptr noundef nonnull align 8 dereferenceable(16) %_M_functor, ptr noundef nonnull align 8 dereferenceable(8) %2) #16
  %_M_invoker2 = getelementptr inbounds nuw %"class.std::function", ptr %this1, i32 0, i32 1
  store ptr @"_ZNSt17_Function_handlerIFddEZNK8QuantLib23ExponentialJump1dMesher20jumpSizeDistributionEdE3$_0E9_M_invokeERKSt9_Any_dataOd", ptr %_M_invoker2, align 8, !tbaa !30
  %_M_manager = getelementptr inbounds nuw %"class.std::_Function_base", ptr %this1, i32 0, i32 1
  store ptr @"_ZNSt17_Function_handlerIFddEZNK8QuantLib23ExponentialJump1dMesher20jumpSizeDistributionEdE3$_0E10_M_managerERSt9_Any_dataRKS5_St18_Manager_operation", ptr %_M_manager, align 8, !tbaa !33
  br label %if.end

if.end:                                           ; preds = %if.then, %entry
  ret void
}

; Function Attrs: mustprogress uwtable
define linkonce_odr noundef double @_ZNK8QuantLib4NullIdEcvdEv(ptr noundef nonnull align 1 dereferenceable(1) %this) #0 comdat align 2 {
entry:
  %this.addr = alloca ptr, align 8
  store ptr %this, ptr %this.addr, align 8, !tbaa !3
  %call = call noundef float @_ZN8QuantLib6detail17FloatingPointNullILb1EE9nullValueEv()
  %conv = fpext float %call to double
  ret double %conv
}

; Function Attrs: inlinehint mustprogress nounwind uwtable
define linkonce_odr noundef nonnull align 8 dereferenceable(8) ptr @_ZSt3minIdERKT_S2_S2_(ptr noundef nonnull align 8 dereferenceable(8) %__a, ptr noundef nonnull align 8 dereferenceable(8) %__b) #5 comdat {
entry:
  %retval = alloca ptr, align 8
  %__a.addr = alloca ptr, align 8
  %__b.addr = alloca ptr, align 8
  store ptr %__a, ptr %__a.addr, align 8, !tbaa !3
  store ptr %__b, ptr %__b.addr, align 8, !tbaa !3
  %0 = load ptr, ptr %__b.addr, align 8, !tbaa !3
  %1 = load double, ptr %0, align 8, !tbaa !9
  %2 = load ptr, ptr %__a.addr, align 8, !tbaa !3
  %3 = load double, ptr %2, align 8, !tbaa !9
  %cmp = fcmp olt double %1, %3
  br i1 %cmp, label %if.then, label %if.end

if.then:                                          ; preds = %entry
  %4 = load ptr, ptr %__b.addr, align 8, !tbaa !3
  store ptr %4, ptr %retval, align 8
  br label %return

if.end:                                           ; preds = %entry
  %5 = load ptr, ptr %__a.addr, align 8, !tbaa !3
  store ptr %5, ptr %retval, align 8
  br label %return

return:                                           ; preds = %if.end, %if.then
  %6 = load ptr, ptr %retval, align 8
  ret ptr %6
}

; Function Attrs: mustprogress nounwind uwtable
define linkonce_odr noundef double @_ZNSt14numeric_limitsIdE7epsilonEv() #3 comdat align 2 {
entry:
  ret double 0x3CB0000000000000
}

; Function Attrs: mustprogress uwtable
define noundef double @_ZNK8QuantLib23ExponentialJump1dMesher20jumpSizeDistributionEd(ptr noundef nonnull align 8 dereferenceable(104) %this, double noundef %x) #0 align 2 personality ptr @__gxx_personality_v0 {
entry:
  %this.addr = alloca ptr, align 8
  %x.addr = alloca double, align 8
  %a = alloca double, align 8
  %xmin = alloca double, align 8
  %ref.tmp = alloca double, align 8
  %gammaValue = alloca double, align 8
  %ref.tmp3 = alloca %"class.QuantLib::GammaFunction", align 1
  %lowerEps = alloca double, align 8
  %ref.tmp15 = alloca %"class.QuantLib::GaussLobattoIntegral", align 8
  %ref.tmp16 = alloca %"class.QuantLib::Null", align 1
  %ref.tmp18 = alloca %"class.std::function", align 8
  %ref.tmp19 = alloca %class.anon.3, align 8
  %ref.tmp21 = alloca double, align 8
  %exn.slot = alloca ptr, align 8
  %ehselector.slot = alloca i32, align 4
  store ptr %this, ptr %this.addr, align 8, !tbaa !3
  store double %x, ptr %x.addr, align 8, !tbaa !9
  %this1 = load ptr, ptr %this.addr, align 8
  call void @llvm.lifetime.start.p0(i64 8, ptr %a) #16
  %jumpIntensity_ = getelementptr inbounds nuw %"class.QuantLib::ExponentialJump1dMesher", ptr %this1, i32 0, i32 2
  %0 = load double, ptr %jumpIntensity_, align 8, !tbaa !20
  %beta_ = getelementptr inbounds nuw %"class.QuantLib::ExponentialJump1dMesher", ptr %this1, i32 0, i32 1
  %1 = load double, ptr %beta_, align 8, !tbaa !13
  %div = fdiv double %0, %1
  store double %div, ptr %a, align 8, !tbaa !9
  call void @llvm.lifetime.start.p0(i64 8, ptr %xmin) #16
  call void @llvm.lifetime.start.p0(i64 8, ptr %ref.tmp) #16
  %call = call noundef double @_ZNSt14numeric_limitsIdE7epsilonEv() #16
  store double %call, ptr %ref.tmp, align 8, !tbaa !9
  %call2 = call noundef nonnull align 8 dereferenceable(8) ptr @_ZSt3minIdERKT_S2_S2_(ptr noundef nonnull align 8 dereferenceable(8) %x.addr, ptr noundef nonnull align 8 dereferenceable(8) %ref.tmp)
  %2 = load double, ptr %call2, align 8, !tbaa !9
  call void @llvm.lifetime.end.p0(i64 8, ptr %ref.tmp) #16
  store double %2, ptr %xmin, align 8, !tbaa !9
  call void @llvm.lifetime.start.p0(i64 8, ptr %gammaValue) #16
  call void @llvm.lifetime.start.p0(i64 1, ptr %ref.tmp3) #16
  %jumpIntensity_4 = getelementptr inbounds nuw %"class.QuantLib::ExponentialJump1dMesher", ptr %this1, i32 0, i32 2
  %3 = load double, ptr %jumpIntensity_4, align 8, !tbaa !20
  %beta_5 = getelementptr inbounds nuw %"class.QuantLib::ExponentialJump1dMesher", ptr %this1, i32 0, i32 1
  %4 = load double, ptr %beta_5, align 8, !tbaa !13
  %div6 = fdiv double %3, %4
  %call7 = call noundef double @_ZNK8QuantLib13GammaFunction8logValueEd(ptr noundef nonnull align 1 dereferenceable(1) %ref.tmp3, double noundef %div6)
  %call8 = call double @exp(double noundef %call7) #16, !tbaa !22
  call void @llvm.lifetime.end.p0(i64 1, ptr %ref.tmp3) #16
  store double %call8, ptr %gammaValue, align 8, !tbaa !9
  call void @llvm.lifetime.start.p0(i64 8, ptr %lowerEps) #16
  %5 = load double, ptr %xmin, align 8, !tbaa !9
  %6 = load double, ptr %a, align 8, !tbaa !9
  %call9 = call double @pow(double noundef %5, double noundef %6) #16, !tbaa !22
  %7 = load double, ptr %a, align 8, !tbaa !9
  %div10 = fdiv double %call9, %7
  %8 = load double, ptr %xmin, align 8, !tbaa !9
  %9 = load double, ptr %a, align 8, !tbaa !9
  %add = fadd double %9, 1.000000e+00
  %call11 = call double @pow(double noundef %8, double noundef %add) #16, !tbaa !22
  %10 = load double, ptr %a, align 8, !tbaa !9
  %add12 = fadd double %10, 1.000000e+00
  %div13 = fdiv double %call11, %add12
  %sub = fsub double %div10, %div13
  %11 = load double, ptr %gammaValue, align 8, !tbaa !9
  %div14 = fdiv double %sub, %11
  store double %div14, ptr %lowerEps, align 8, !tbaa !9
  %12 = load double, ptr %lowerEps, align 8, !tbaa !9
  call void @llvm.lifetime.start.p0(i64 56, ptr %ref.tmp15) #16
  call void @llvm.lifetime.start.p0(i64 1, ptr %ref.tmp16) #16
  %call17 = call noundef double @_ZNK8QuantLib4NullIdEcvdEv(ptr noundef nonnull align 1 dereferenceable(1) %ref.tmp16)
  call void @_ZN8QuantLib20GaussLobattoIntegralC1Emddb(ptr noundef nonnull align 8 dereferenceable(49) %ref.tmp15, i64 noundef 10000, double noundef 0x3D719799812DEA11, double noundef %call17, i1 noundef zeroext true)
  call void @llvm.lifetime.start.p0(i64 32, ptr %ref.tmp18) #16
  call void @llvm.lifetime.start.p0(i64 8, ptr %ref.tmp19) #16
  %13 = getelementptr inbounds nuw %class.anon.3, ptr %ref.tmp19, i32 0, i32 0
  store ptr %this1, ptr %13, align 8, !tbaa !34
  call void @"_ZNSt8functionIFddEEC2IZNK8QuantLib23ExponentialJump1dMesher20jumpSizeDistributionEdE3$_0vEEOT_"(ptr noundef nonnull align 8 dereferenceable(32) %ref.tmp18, ptr noundef nonnull align 8 dereferenceable(8) %ref.tmp19) #16
  %14 = load double, ptr %xmin, align 8, !tbaa !9
  %eta_ = getelementptr inbounds nuw %"class.QuantLib::ExponentialJump1dMesher", ptr %this1, i32 0, i32 3
  %15 = load double, ptr %eta_, align 8, !tbaa !21
  %div20 = fdiv double %14, %15
  call void @llvm.lifetime.start.p0(i64 8, ptr %ref.tmp21) #16
  %16 = load double, ptr %xmin, align 8, !tbaa !9
  %eta_22 = getelementptr inbounds nuw %"class.QuantLib::ExponentialJump1dMesher", ptr %this1, i32 0, i32 3
  %17 = load double, ptr %eta_22, align 8, !tbaa !21
  %div23 = fdiv double %16, %17
  store double %div23, ptr %ref.tmp21, align 8, !tbaa !9
  %call24 = invoke noundef nonnull align 8 dereferenceable(8) ptr @_ZSt3maxIdERKT_S2_S2_(ptr noundef nonnull align 8 dereferenceable(8) %x.addr, ptr noundef nonnull align 8 dereferenceable(8) %ref.tmp21)
          to label %invoke.cont unwind label %lpad

invoke.cont:                                      ; preds = %entry
  %18 = load double, ptr %call24, align 8, !tbaa !9
  %call26 = invoke noundef double @_ZNK8QuantLib10IntegratorclERKSt8functionIFddEEdd(ptr noundef nonnull align 8 dereferenceable(40) %ref.tmp15, ptr noundef nonnull align 8 dereferenceable(32) %ref.tmp18, double noundef %div20, double noundef %18)
          to label %invoke.cont25 unwind label %lpad

invoke.cont25:                                    ; preds = %invoke.cont
  %add27 = fadd double %12, %call26
  call void @llvm.lifetime.end.p0(i64 8, ptr %ref.tmp21) #16
  call void @_ZNSt14_Function_baseD2Ev(ptr noundef nonnull align 8 dereferenceable(32) %ref.tmp18) #16
  call void @llvm.lifetime.end.p0(i64 8, ptr %ref.tmp19) #16
  call void @llvm.lifetime.end.p0(i64 32, ptr %ref.tmp18) #16
  call void @_ZN8QuantLib10IntegratorD2Ev(ptr noundef nonnull align 8 dereferenceable(49) %ref.tmp15) #16
  call void @llvm.lifetime.end.p0(i64 1, ptr %ref.tmp16) #16
  call void @llvm.lifetime.end.p0(i64 56, ptr %ref.tmp15) #16
  call void @llvm.lifetime.end.p0(i64 8, ptr %lowerEps) #16
  call void @llvm.lifetime.end.p0(i64 8, ptr %gammaValue) #16
  call void @llvm.lifetime.end.p0(i64 8, ptr %xmin) #16
  call void @llvm.lifetime.end.p0(i64 8, ptr %a) #16
  ret double %add27

lpad:                                             ; preds = %invoke.cont, %entry
  %19 = landingpad { ptr, i32 }
          cleanup
  %20 = extractvalue { ptr, i32 } %19, 0
  store ptr %20, ptr %exn.slot, align 8
  %21 = extractvalue { ptr, i32 } %19, 1
  store i32 %21, ptr %ehselector.slot, align 4
  call void @llvm.lifetime.end.p0(i64 8, ptr %ref.tmp21) #16
  call void @_ZNSt14_Function_baseD2Ev(ptr noundef nonnull align 8 dereferenceable(32) %ref.tmp18) #16
  call void @llvm.lifetime.end.p0(i64 8, ptr %ref.tmp19) #16
  call void @llvm.lifetime.end.p0(i64 32, ptr %ref.tmp18) #16
  call void @_ZN8QuantLib10IntegratorD2Ev(ptr noundef nonnull align 8 dereferenceable(49) %ref.tmp15) #16
  call void @llvm.lifetime.end.p0(i64 1, ptr %ref.tmp16) #16
  call void @llvm.lifetime.end.p0(i64 56, ptr %ref.tmp15) #16
  call void @llvm.lifetime.end.p0(i64 8, ptr %lowerEps) #16
  call void @llvm.lifetime.end.p0(i64 8, ptr %gammaValue) #16
  call void @llvm.lifetime.end.p0(i64 8, ptr %xmin) #16
  call void @llvm.lifetime.end.p0(i64 8, ptr %a) #16
  br label %eh.resume

eh.resume:                                        ; preds = %lpad
  %exn = load ptr, ptr %exn.slot, align 8
  %sel = load i32, ptr %ehselector.slot, align 4
  %lpad.val = insertvalue { ptr, i32 } poison, ptr %exn, 0
  %lpad.val28 = insertvalue { ptr, i32 } %lpad.val, i32 %sel, 1
  resume { ptr, i32 } %lpad.val28
}