; Function Attrs: mustprogress uwtable
define noundef double @_ZNK8QuantLib23ExponentialJump1dMesher20jumpSizeDistributionEd(ptr noundef nonnull align 8 dereferenceable(104) %this, double noundef %x) local_unnamed_addr #0 align 2 personality ptr @__gxx_personality_v0 {
entry:
  %ref.tmp3 = alloca %"class.QuantLib::GammaFunction", align 1
  %ref.tmp15 = alloca %"class.QuantLib::GaussLobattoIntegral", align 8
  %ref.tmp18 = alloca %"class.std::function", align 8
  %jumpIntensity_ = getelementptr inbounds nuw i8, ptr %this, i64 88
  %0 = load double, ptr %jumpIntensity_, align 8, !tbaa !16
  %beta_ = getelementptr inbounds nuw i8, ptr %this, i64 80
  %1 = load double, ptr %beta_, align 8, !tbaa !6
  %div = fdiv double %0, %1
  %cmp.i = fcmp ogt double %x, 0x3CB0000000000000
  %.sroa.speculated16 = select i1 %cmp.i, double 0x3CB0000000000000, double %x
  call void @llvm.lifetime.start.p0(i64 1, ptr nonnull %ref.tmp3) #19
  %call7 = call noundef double @_ZNK8QuantLib13GammaFunction8logValueEd(ptr noundef nonnull align 1 dereferenceable(1) %ref.tmp3, double noundef %div)
  %call8 = call double @exp(double noundef %call7) #19, !tbaa !24
  call void @llvm.lifetime.end.p0(i64 1, ptr nonnull %ref.tmp3) #19
  %call9 = call double @pow(double noundef %.sroa.speculated16, double noundef %div) #19, !tbaa !24
  %add = fadd double %div, 1.000000e+00
  %call11 = call double @pow(double noundef %.sroa.speculated16, double noundef %add) #19, !tbaa !24
  call void @llvm.lifetime.start.p0(i64 56, ptr nonnull %ref.tmp15) #19
  call void @_ZN8QuantLib20GaussLobattoIntegralC1Emddb(ptr noundef nonnull align 8 dereferenceable(49) %ref.tmp15, i64 noundef 10000, double noundef 0x3D719799812DEA11, double noundef 0x47EFFFFFE0000000, i1 noundef zeroext true)
  call void @llvm.lifetime.start.p0(i64 32, ptr nonnull %ref.tmp18) #19
  %_M_manager.i.i = getelementptr inbounds nuw i8, ptr %ref.tmp18, i64 16
  %_M_invoker.i = getelementptr inbounds nuw i8, ptr %ref.tmp18, i64 24
  %2 = getelementptr inbounds i8, ptr %ref.tmp18, i64 8
  store i64 0, ptr %2, align 8
  %3 = ptrtoint ptr %this to i64
  store i64 %3, ptr %ref.tmp18, align 8, !tbaa !27
  store ptr @"_ZNSt17_Function_handlerIFddEZNK8QuantLib23ExponentialJump1dMesher20jumpSizeDistributionEdE3$_0E9_M_invokeERKSt9_Any_dataOd", ptr %_M_invoker.i, align 8, !tbaa !38
  store ptr @"_ZNSt17_Function_handlerIFddEZNK8QuantLib23ExponentialJump1dMesher20jumpSizeDistributionEdE3$_0E10_M_managerERSt9_Any_dataRKS5_St18_Manager_operation", ptr %_M_manager.i.i, align 8, !tbaa !41
  %eta_ = getelementptr inbounds nuw i8, ptr %this, i64 96
  %4 = load double, ptr %eta_, align 8, !tbaa !17
  %div20 = fdiv double %.sroa.speculated16, %4
  %cmp.i7 = fcmp olt double %x, %div20
  %.sroa.speculated = select i1 %cmp.i7, double %div20, double %x
  %call26 = invoke noundef double @_ZNK8QuantLib10IntegratorclERKSt8functionIFddEEdd(ptr noundef nonnull align 8 dereferenceable(40) %ref.tmp15, ptr noundef nonnull align 8 dereferenceable(32) %ref.tmp18, double noundef %div20, double noundef %.sroa.speculated)
          to label %invoke.cont25 unwind label %lpad

invoke.cont25:                                    ; preds = %entry
  %5 = load ptr, ptr %_M_manager.i.i, align 8, !tbaa !41
  %tobool.not.i = icmp eq ptr %5, null
  br i1 %tobool.not.i, label %_ZNSt14_Function_baseD2Ev.exit, label %if.then.i

if.then.i:                                        ; preds = %invoke.cont25
  %call.i = invoke noundef zeroext i1 %5(ptr noundef nonnull align 8 dereferenceable(16) %ref.tmp18, ptr noundef nonnull align 8 dereferenceable(16) %ref.tmp18, i32 noundef 3)
          to label %_ZNSt14_Function_baseD2Ev.exit unwind label %terminate.lpad.i

terminate.lpad.i:                                 ; preds = %if.then.i
  %6 = landingpad { ptr, i32 }
          catch ptr null
  %7 = extractvalue { ptr, i32 } %6, 0
  call void @__clang_call_terminate(ptr %7) #23
  unreachable

_ZNSt14_Function_baseD2Ev.exit:                   ; preds = %invoke.cont25, %if.then.i
  %div10 = fdiv double %call9, %div
  %div13 = fdiv double %call11, %add
  %sub = fsub double %div10, %div13
  %div14 = fdiv double %sub, %call8
  %add27 = fadd double %div14, %call26
  call void @llvm.lifetime.end.p0(i64 32, ptr nonnull %ref.tmp18) #19
  call void @llvm.lifetime.end.p0(i64 56, ptr nonnull %ref.tmp15) #19
  ret double %add27

lpad:                                             ; preds = %entry
  %8 = landingpad { ptr, i32 }
          cleanup
  %9 = load ptr, ptr %_M_manager.i.i, align 8, !tbaa !41
  %tobool.not.i10 = icmp eq ptr %9, null
  br i1 %tobool.not.i10, label %_ZNSt14_Function_baseD2Ev.exit14, label %if.then.i11

if.then.i11:                                      ; preds = %lpad
  %call.i12 = invoke noundef zeroext i1 %9(ptr noundef nonnull align 8 dereferenceable(16) %ref.tmp18, ptr noundef nonnull align 8 dereferenceable(16) %ref.tmp18, i32 noundef 3)
          to label %_ZNSt14_Function_baseD2Ev.exit14 unwind label %terminate.lpad.i13

terminate.lpad.i13:                               ; preds = %if.then.i11
  %10 = landingpad { ptr, i32 }
          catch ptr null
  %11 = extractvalue { ptr, i32 } %10, 0
  call void @__clang_call_terminate(ptr %11) #23
  unreachable

_ZNSt14_Function_baseD2Ev.exit14:                 ; preds = %lpad, %if.then.i11
  call void @llvm.lifetime.end.p0(i64 32, ptr nonnull %ref.tmp18) #19
  call void @llvm.lifetime.end.p0(i64 56, ptr nonnull %ref.tmp15) #19
  resume { ptr, i32 } %8
}